	.file	"main.cpp"
	.local	_ZStL8__ioinit
	.comm	_ZStL8__ioinit,1,1
	.text
	.align 2
	.globl	_ZN1C5printEv
	.type	_ZN1C5printEv, @function
_ZN1C5printEv:
.LFB1021:
	.cfi_startproc
	pushl	%ebp
	.cfi_def_cfa_offset 8
	.cfi_offset 5, -8
	movl	%esp, %ebp
	.cfi_def_cfa_register 5
	nop
	popl	%ebp
	.cfi_restore 5
	.cfi_def_cfa 4, 4
	ret
	.cfi_endproc
.LFE1021:
	.size	_ZN1C5printEv, .-_ZN1C5printEv
	.align 2
	.globl	_ZN1C5printEi
	.type	_ZN1C5printEi, @function
_ZN1C5printEi:
.LFB1022:
	.cfi_startproc
	pushl	%ebp
	.cfi_def_cfa_offset 8
	.cfi_offset 5, -8
	movl	%esp, %ebp
	.cfi_def_cfa_register 5
	nop
	popl	%ebp
	.cfi_restore 5
	.cfi_def_cfa 4, 4
	ret
	.cfi_endproc
.LFE1022:
	.size	_ZN1C5printEi, .-_ZN1C5printEi
	.align 2
	.globl	_ZN1C5printEc
	.type	_ZN1C5printEc, @function
_ZN1C5printEc:
.LFB1023:
	.cfi_startproc
	pushl	%ebp
	.cfi_def_cfa_offset 8
	.cfi_offset 5, -8
	movl	%esp, %ebp
	.cfi_def_cfa_register 5
	subl	$4, %esp
	movl	12(%ebp), %eax
	movb	%al, -4(%ebp)
	nop
	leave
	.cfi_restore 5
	.cfi_def_cfa 4, 4
	ret
	.cfi_endproc
.LFE1023:
	.size	_ZN1C5printEc, .-_ZN1C5printEc
	.globl	main
	.type	main, @function
main:
.LFB1024:
	.cfi_startproc
	pushl	%ebp
	.cfi_def_cfa_offset 8
	.cfi_offset 5, -8
	movl	%esp, %ebp
	.cfi_def_cfa_register 5
	movl	$0, %eax
	popl	%ebp
	.cfi_restore 5
	.cfi_def_cfa 4, 4
	ret
	.cfi_endproc
.LFE1024:
	.size	main, .-main
	.type	_Z41__static_initialization_and_destruction_0ii, @function
_Z41__static_initialization_and_destruction_0ii:
.LFB1025:
	.cfi_startproc
	pushl	%ebp
	.cfi_def_cfa_offset 8
	.cfi_offset 5, -8
	movl	%esp, %ebp
	.cfi_def_cfa_register 5
	subl	$8, %esp
	cmpl	$1, 8(%ebp)
	jne	.L8
	cmpl	$65535, 12(%ebp)
	jne	.L8
	subl	$12, %esp
	pushl	$_ZStL8__ioinit
	call	_ZNSt8ios_base4InitC1Ev
	addl	$16, %esp
	subl	$4, %esp
	pushl	$__dso_handle
	pushl	$_ZStL8__ioinit
	pushl	$_ZNSt8ios_base4InitD1Ev
	call	__cxa_atexit
	addl	$16, %esp
.L8:
	nop
	leave
	.cfi_restore 5
	.cfi_def_cfa 4, 4
	ret
	.cfi_endproc
.LFE1025:
	.size	_Z41__static_initialization_and_destruction_0ii, .-_Z41__static_initialization_and_destruction_0ii
	.type	_GLOBAL__sub_I__ZN1C5printEv, @function
_GLOBAL__sub_I__ZN1C5printEv:
.LFB1026:
	.cfi_startproc
	pushl	%ebp
	.cfi_def_cfa_offset 8
	.cfi_offset 5, -8
	movl	%esp, %ebp
	.cfi_def_cfa_register 5
	subl	$8, %esp
	subl	$8, %esp
	pushl	$65535
	pushl	$1
	call	_Z41__static_initialization_and_destruction_0ii
	addl	$16, %esp
	leave
	.cfi_restore 5
	.cfi_def_cfa 4, 4
	ret
	.cfi_endproc
.LFE1026:
	.size	_GLOBAL__sub_I__ZN1C5printEv, .-_GLOBAL__sub_I__ZN1C5printEv
	.section	.init_array,"aw"
	.align 4
	.long	_GLOBAL__sub_I__ZN1C5printEv
	.hidden	__dso_handle
	.ident	"GCC: (Ubuntu 5.4.0-6ubuntu1~16.04.12) 5.4.0 20160609"
	.section	.note.GNU-stack,"",@progbits
